; Function Attrs: nofree norecurse nosync nounwind memory(write, argmem: readwrite, inaccessiblemem: none) uwtable
define void @Ptngc_writemanybits(ptr noundef captures(none) %0, ptr noundef readonly captures(none) %1, i32 noundef %2, ptr noundef captures(none) %3) local_unnamed_addr #6 {
  %5 = icmp sgt i32 %2, 23
  br i1 %5, label %.lr.ph, label %.preheader

.lr.ph:                                           ; preds = %4
  %6 = getelementptr inbounds nuw i8, ptr %0, i64 4
  %.pre = load i32, ptr %0, align 4, !tbaa !8
  %.pre49 = load i32, ptr %6, align 4, !tbaa !3
  br label %11

.preheader.loopexit:                              ; preds = %Ptngc_writebits.exit
  %7 = trunc nuw nsw i64 %indvars.iv.next to i32
  br label %.preheader

.preheader:                                       ; preds = %.preheader.loopexit, %4
  %.024.lcssa = phi i32 [ 0, %4 ], [ %7, %.preheader.loopexit ]
  %.0.lcssa = phi i32 [ %2, %4 ], [ %47, %.preheader.loopexit ]
  %8 = icmp sgt i32 %.0.lcssa, 7
  br i1 %8, label %.lr.ph39, label %._crit_edge

.lr.ph39:                                         ; preds = %.preheader
  %9 = getelementptr inbounds nuw i8, ptr %0, i64 4
  %10 = zext nneg i32 %.024.lcssa to i64
  %.pre50 = load i32, ptr %0, align 4, !tbaa !8
  %.pre51 = load i32, ptr %9, align 4, !tbaa !3
  br label %49

11:                                               ; preds = %.lr.ph, %Ptngc_writebits.exit
  %12 = phi i32 [ %.pre49, %.lr.ph ], [ %45, %Ptngc_writebits.exit ]
  %13 = phi i32 [ %.pre, %.lr.ph ], [ %46, %Ptngc_writebits.exit ]
  %indvars.iv = phi i64 [ 0, %.lr.ph ], [ %indvars.iv.next, %Ptngc_writebits.exit ]
  %.035 = phi i32 [ %2, %.lr.ph ], [ %47, %Ptngc_writebits.exit ]
  %14 = getelementptr inbounds nuw i8, ptr %1, i64 %indvars.iv
  %15 = load i8, ptr %14, align 1, !tbaa !12
  %16 = zext i8 %15 to i32
  %17 = shl nuw nsw i32 %16, 16
  %18 = getelementptr inbounds nuw i8, ptr %14, i64 1
  %19 = load i8, ptr %18, align 1, !tbaa !12
  %20 = zext i8 %19 to i32
  %21 = shl nuw nsw i32 %20, 8
  %22 = or disjoint i32 %21, %17
  %23 = getelementptr inbounds nuw i8, ptr %14, i64 2
  %24 = load i8, ptr %23, align 1, !tbaa !12
  %25 = zext i8 %24 to i32
  %26 = or disjoint i32 %22, %25
  %27 = shl i32 %13, 24
  %28 = add nsw i32 %12, 24
  store i32 %28, ptr %6, align 4, !tbaa !3
  %29 = or disjoint i32 %26, %27
  store i32 %29, ptr %0, align 4, !tbaa !8
  %30 = icmp sgt i32 %12, -17
  br i1 %30, label %.lr.ph.preheader.i.i, label %Ptngc_writebits.exit

.lr.ph.preheader.i.i:                             ; preds = %11
  %.pre9.i.i = load ptr, ptr %3, align 8, !tbaa !9
  br label %.lr.ph.i.i

.lr.ph.i.i:                                       ; preds = %.lr.ph.i.i, %.lr.ph.preheader.i.i
  %31 = phi ptr [ %40, %.lr.ph.i.i ], [ %.pre9.i.i, %.lr.ph.preheader.i.i ]
  %32 = phi i32 [ %42, %.lr.ph.i.i ], [ %29, %.lr.ph.preheader.i.i ]
  %33 = phi i32 [ %43, %.lr.ph.i.i ], [ %28, %.lr.ph.preheader.i.i ]
  %34 = add nsw i32 %33, -8
  store i32 %34, ptr %6, align 4, !tbaa !3
  %35 = shl i32 255, %34
  %36 = xor i32 %35, -1
  %37 = lshr i32 %32, %34
  %38 = trunc i32 %37 to i8
  store i8 %38, ptr %31, align 1, !tbaa !12
  %39 = load ptr, ptr %3, align 8, !tbaa !9
  %40 = getelementptr inbounds nuw i8, ptr %39, i64 1
  store ptr %40, ptr %3, align 8, !tbaa !9
  %41 = load i32, ptr %0, align 4, !tbaa !8
  %42 = and i32 %41, %36
  store i32 %42, ptr %0, align 4, !tbaa !8
  %43 = load i32, ptr %6, align 4, !tbaa !3
  %44 = icmp sgt i32 %43, 7
  br i1 %44, label %.lr.ph.i.i, label %Ptngc_writebits.exit, !llvm.loop !13

Ptngc_writebits.exit:                             ; preds = %.lr.ph.i.i, %11
  %45 = phi i32 [ %28, %11 ], [ %43, %.lr.ph.i.i ]
  %46 = phi i32 [ %29, %11 ], [ %42, %.lr.ph.i.i ]
  %indvars.iv.next = add nuw nsw i64 %indvars.iv, 3
  %47 = add nsw i32 %.035, -24
  %48 = icmp samesign ugt i32 %.035, 47
  br i1 %48, label %11, label %.preheader.loopexit, !llvm.loop !17

49:                                               ; preds = %.lr.ph39, %Ptngc_writebits.exit29
  %50 = phi i32 [ %.pre51, %.lr.ph39 ], [ %73, %Ptngc_writebits.exit29 ]
  %51 = phi i32 [ %.pre50, %.lr.ph39 ], [ %74, %Ptngc_writebits.exit29 ]
  %indvars.iv46 = phi i64 [ %10, %.lr.ph39 ], [ %indvars.iv.next47, %Ptngc_writebits.exit29 ]
  %.138 = phi i32 [ %.0.lcssa, %.lr.ph39 ], [ %75, %Ptngc_writebits.exit29 ]
  %52 = getelementptr inbounds nuw i8, ptr %1, i64 %indvars.iv46
  %53 = load i8, ptr %52, align 1, !tbaa !12
  %54 = zext i8 %53 to i32
  %55 = shl i32 %51, 8
  %56 = add nsw i32 %50, 8
  store i32 %56, ptr %9, align 4, !tbaa !3
  %57 = or disjoint i32 %55, %54
  store i32 %57, ptr %0, align 4, !tbaa !8
  %58 = icmp sgt i32 %50, -1
  br i1 %58, label %.lr.ph.preheader.i.i26, label %Ptngc_writebits.exit29

.lr.ph.preheader.i.i26:                           ; preds = %49
  %.pre9.i.i27 = load ptr, ptr %3, align 8, !tbaa !9
  br label %.lr.ph.i.i28

.lr.ph.i.i28:                                     ; preds = %.lr.ph.i.i28, %.lr.ph.preheader.i.i26
  %59 = phi ptr [ %68, %.lr.ph.i.i28 ], [ %.pre9.i.i27, %.lr.ph.preheader.i.i26 ]
  %60 = phi i32 [ %70, %.lr.ph.i.i28 ], [ %57, %.lr.ph.preheader.i.i26 ]
  %61 = phi i32 [ %71, %.lr.ph.i.i28 ], [ %56, %.lr.ph.preheader.i.i26 ]
  %62 = add nsw i32 %61, -8
  store i32 %62, ptr %9, align 4, !tbaa !3
  %63 = shl i32 255, %62
  %64 = xor i32 %63, -1
  %65 = lshr i32 %60, %62
  %66 = trunc i32 %65 to i8
  store i8 %66, ptr %59, align 1, !tbaa !12
  %67 = load ptr, ptr %3, align 8, !tbaa !9
  %68 = getelementptr inbounds nuw i8, ptr %67, i64 1
  store ptr %68, ptr %3, align 8, !tbaa !9
  %69 = load i32, ptr %0, align 4, !tbaa !8
  %70 = and i32 %69, %64
  store i32 %70, ptr %0, align 4, !tbaa !8
  %71 = load i32, ptr %9, align 4, !tbaa !3
  %72 = icmp sgt i32 %71, 7
  br i1 %72, label %.lr.ph.i.i28, label %Ptngc_writebits.exit29, !llvm.loop !13

Ptngc_writebits.exit29:                           ; preds = %.lr.ph.i.i28, %49
  %73 = phi i32 [ %56, %49 ], [ %71, %.lr.ph.i.i28 ]
  %74 = phi i32 [ %57, %49 ], [ %70, %.lr.ph.i.i28 ]
  %indvars.iv.next47 = add nuw nsw i64 %indvars.iv46, 1
  %75 = add nsw i32 %.138, -8
  %76 = icmp sgt i32 %.138, 15
  br i1 %76, label %49, label %._crit_edge.loopexit, !llvm.loop !18

._crit_edge.loopexit:                             ; preds = %Ptngc_writebits.exit29
  %77 = trunc nuw nsw i64 %indvars.iv.next47 to i32
  br label %._crit_edge

._crit_edge:                                      ; preds = %._crit_edge.loopexit, %.preheader
  %.125.lcssa = phi i32 [ %.024.lcssa, %.preheader ], [ %77, %._crit_edge.loopexit ]
  %.1.lcssa = phi i32 [ %.0.lcssa, %.preheader ], [ %75, %._crit_edge.loopexit ]
  %.not = icmp eq i32 %.1.lcssa, 0
  br i1 %.not, label %Ptngc_writebits.exit33, label %78

78:                                               ; preds = %._crit_edge
  %79 = zext nneg i32 %.125.lcssa to i64
  %80 = getelementptr inbounds nuw i8, ptr %1, i64 %79
  %81 = load i8, ptr %80, align 1, !tbaa !12
  %82 = zext i8 %81 to i32
  %83 = load i32, ptr %0, align 4, !tbaa !8
  %84 = shl i32 %83, %.1.lcssa
  %85 = getelementptr inbounds nuw i8, ptr %0, i64 4
  %86 = load i32, ptr %85, align 4, !tbaa !3
  %87 = add nsw i32 %86, %.1.lcssa
  store i32 %87, ptr %85, align 4, !tbaa !3
  %88 = or i32 %84, %82
  store i32 %88, ptr %0, align 4, !tbaa !8
  %89 = icmp sgt i32 %87, 7
  br i1 %89, label %.lr.ph.preheader.i.i30, label %Ptngc_writebits.exit33

.lr.ph.preheader.i.i30:                           ; preds = %78
  %.pre9.i.i31 = load ptr, ptr %3, align 8, !tbaa !9
  br label %.lr.ph.i.i32

.lr.ph.i.i32:                                     ; preds = %.lr.ph.i.i32, %.lr.ph.preheader.i.i30
  %90 = phi ptr [ %99, %.lr.ph.i.i32 ], [ %.pre9.i.i31, %.lr.ph.preheader.i.i30 ]
  %91 = phi i32 [ %101, %.lr.ph.i.i32 ], [ %88, %.lr.ph.preheader.i.i30 ]
  %92 = phi i32 [ %102, %.lr.ph.i.i32 ], [ %87, %.lr.ph.preheader.i.i30 ]
  %93 = add nsw i32 %92, -8
  store i32 %93, ptr %85, align 4, !tbaa !3
  %94 = shl i32 255, %93
  %95 = xor i32 %94, -1
  %96 = lshr i32 %91, %93
  %97 = trunc i32 %96 to i8
  store i8 %97, ptr %90, align 1, !tbaa !12
  %98 = load ptr, ptr %3, align 8, !tbaa !9
  %99 = getelementptr inbounds nuw i8, ptr %98, i64 1
  store ptr %99, ptr %3, align 8, !tbaa !9
  %100 = load i32, ptr %0, align 4, !tbaa !8
  %101 = and i32 %100, %95
  store i32 %101, ptr %0, align 4, !tbaa !8
  %102 = load i32, ptr %85, align 4, !tbaa !3
  %103 = icmp sgt i32 %102, 7
  br i1 %103, label %.lr.ph.i.i32, label %Ptngc_writebits.exit33, !llvm.loop !13

Ptngc_writebits.exit33:                           ; preds = %.lr.ph.i.i32, %78, %._crit_edge
  ret void
}